(lp0
(S'cppflags'
p1
ccopy_reg
_reconstructor
p2
(cino.utils
SpaceList
p3
c__builtin__
list
p4
(lp5
S'-mmcu=atmega328p'
p6
aS'-DF_CPU=16000000L'
p7
aS'-DARDUINO=105'
p8
aS'-I/usr/share/arduino/hardware/arduino/cores/arduino'
p9
aS'-ffunction-sections'
p10
aS'-fdata-sections'
p11
aS'-g'
p12
aS'-Os'
p13
aS'-w'
p14
aS'-I/usr/share/arduino/hardware/arduino/variants/standard'
p15
atp16
Rp17
tp18
a(S'cxx'
p19
S'/usr/share/arduino/hardware/tools/avr/bin/avr-g++'
p20
tp21
a(S'build_dir'
p22
S'.build/uno'
p23
tp24
a(S'avrdude'
p25
S'/usr/share/arduino/hardware/tools/avrdude'
p26
tp27
a(S'ar'
p28
S'/usr/share/arduino/hardware/tools/avr/bin/avr-ar'
p29
tp30
a(S'names'
p31
(dp32
S'cpp'
p33
S'%s.cpp'
p34
sS'obj'
p35
S'%s.o'
p36
sS'lib'
p37
S'lib%s.a'
p38
sS'deps'
p39
S'%s.d'
p40
stp41
a(S'ldflags'
p42
g2
(g3
g4
(lp43
g6
aS'-Wl,-Os'
p44
aS'-Wl,--gc-sections'
p45
atp46
Rp47
tp48
a(S'arduino_lib_version'
p49
g2
(cino.environment
Version
p50
c__builtin__
tuple
p51
(I1
I0
I5
tp52
tp53
Rp54
tp55
a(S'objcopy'
p56
S'/usr/share/arduino/hardware/tools/avr/bin/avr-objcopy'
p57
tp58
a(S'board_models'
p59
cino.environment
BoardModels
p60
((lp61
(lp62
S'uno'
p63
a(dp64
S'bootloader'
p65
(dp66
S'extended_fuses'
p67
S'0x05'
p68
sS'high_fuses'
p69
S'0xde'
p70
sS'low_fuses'
p71
S'0xff'
p72
sS'lock_bits'
p73
S'0x0F'
p74
sS'file'
p75
S'optiboot_atmega328.hex'
p76
sS'path'
p77
S'optiboot'
p78
sS'unlock_bits'
p79
S'0x3F'
p80
ssS'upload'
p81
(dp82
S'speed'
p83
S'115200'
p84
sS'maximum_size'
p85
S'32256'
p86
sS'protocol'
p87
S'arduino'
p88
ssS'name'
p89
S'Arduino Uno'
p90
sS'build'
p91
(dp92
S'core'
p93
S'arduino'
p94
sS'mcu'
p95
S'atmega328p'
p96
sS'f_cpu'
p97
S'16000000L'
p98
sS'variant'
p99
S'standard'
p100
ssaa(lp101
S'atmega328'
p102
a(dp103
S'bootloader'
p104
(dp105
S'extended_fuses'
p106
S'0x05'
p107
sS'high_fuses'
p108
S'0xDA'
p109
sS'low_fuses'
p110
S'0xFF'
p111
sS'lock_bits'
p112
S'0x0F'
p113
sS'file'
p114
S'ATmegaBOOT_168_atmega328.hex'
p115
sS'path'
p116
S'atmega'
p117
sS'unlock_bits'
p118
S'0x3F'
p119
ssS'upload'
p120
(dp121
S'speed'
p122
S'57600'
p123
sS'maximum_size'
p124
S'30720'
p125
sS'protocol'
p126
S'arduino'
p127
ssS'name'
p128
S'Arduino Duemilanove w/ ATmega328'
p129
sS'build'
p130
(dp131
S'core'
p132
S'arduino'
p133
sS'mcu'
p134
S'atmega328p'
p135
sS'f_cpu'
p136
S'16000000L'
p137
sS'variant'
p138
S'standard'
p139
ssaa(lp140
S'diecimila'
p141
a(dp142
S'bootloader'
p143
(dp144
S'extended_fuses'
p145
S'0x00'
p146
sS'high_fuses'
p147
S'0xdd'
p148
sS'low_fuses'
p149
S'0xff'
p150
sS'lock_bits'
p151
S'0x0F'
p152
sS'file'
p153
S'ATmegaBOOT_168_diecimila.hex'
p154
sS'path'
p155
S'atmega'
p156
sS'unlock_bits'
p157
S'0x3F'
p158
ssS'upload'
p159
(dp160
S'speed'
p161
S'19200'
p162
sS'maximum_size'
p163
S'14336'
p164
sS'protocol'
p165
S'arduino'
p166
ssS'name'
p167
S'Arduino Diecimila or Duemilanove w/ ATmega168'
p168
sS'build'
p169
(dp170
S'core'
p171
S'arduino'
p172
sS'mcu'
p173
S'atmega168'
p174
sS'f_cpu'
p175
S'16000000L'
p176
sS'variant'
p177
S'standard'
p178
ssaa(lp179
S'nano328'
p180
a(dp181
S'bootloader'
p182
(dp183
S'extended_fuses'
p184
S'0x05'
p185
sS'high_fuses'
p186
S'0xDA'
p187
sS'low_fuses'
p188
S'0xFF'
p189
sS'lock_bits'
p190
S'0x0F'
p191
sS'file'
p192
S'ATmegaBOOT_168_atmega328.hex'
p193
sS'path'
p194
S'atmega'
p195
sS'unlock_bits'
p196
S'0x3F'
p197
ssS'upload'
p198
(dp199
S'speed'
p200
S'57600'
p201
sS'maximum_size'
p202
S'30720'
p203
sS'protocol'
p204
S'arduino'
p205
ssS'name'
p206
S'Arduino Nano w/ ATmega328'
p207
sS'build'
p208
(dp209
S'core'
p210
S'arduino'
p211
sS'mcu'
p212
S'atmega328p'
p213
sS'f_cpu'
p214
S'16000000L'
p215
sS'variant'
p216
S'eightanaloginputs'
p217
ssaa(lp218
S'nano'
p219
a(dp220
S'bootloader'
p221
(dp222
S'extended_fuses'
p223
S'0x00'
p224
sS'high_fuses'
p225
S'0xdd'
p226
sS'low_fuses'
p227
S'0xff'
p228
sS'lock_bits'
p229
S'0x0F'
p230
sS'file'
p231
S'ATmegaBOOT_168_diecimila.hex'
p232
sS'path'
p233
S'atmega'
p234
sS'unlock_bits'
p235
S'0x3F'
p236
ssS'upload'
p237
(dp238
S'speed'
p239
S'19200'
p240
sS'maximum_size'
p241
S'14336'
p242
sS'protocol'
p243
S'arduino'
p244
ssS'name'
p245
S'Arduino Nano w/ ATmega168'
p246
sS'build'
p247
(dp248
S'core'
p249
S'arduino'
p250
sS'mcu'
p251
S'atmega168'
p252
sS'f_cpu'
p253
S'16000000L'
p254
sS'variant'
p255
S'eightanaloginputs'
p256
ssaa(lp257
S'mega2560'
p258
a(dp259
S'bootloader'
p260
(dp261
S'extended_fuses'
p262
S'0xFD'
p263
sS'high_fuses'
p264
S'0xD8'
p265
sS'low_fuses'
p266
S'0xFF'
p267
sS'lock_bits'
p268
S'0x0F'
p269
sS'file'
p270
S'stk500boot_v2_mega2560.hex'
p271
sS'path'
p272
S'stk500v2'
p273
sS'unlock_bits'
p274
S'0x3F'
p275
ssS'upload'
p276
(dp277
S'speed'
p278
S'115200'
p279
sS'maximum_size'
p280
S'258048'
p281
sS'protocol'
p282
S'wiring'
p283
ssS'name'
p284
S'Arduino Mega 2560 or Mega ADK'
p285
sS'build'
p286
(dp287
S'core'
p288
S'arduino'
p289
sS'mcu'
p290
S'atmega2560'
p291
sS'f_cpu'
p292
S'16000000L'
p293
sS'variant'
p294
S'mega'
p295
ssaa(lp296
S'mega'
p297
a(dp298
S'bootloader'
p299
(dp300
S'extended_fuses'
p301
S'0xF5'
p302
sS'high_fuses'
p303
S'0xDA'
p304
sS'low_fuses'
p305
S'0xFF'
p306
sS'lock_bits'
p307
S'0x0F'
p308
sS'file'
p309
S'ATmegaBOOT_168_atmega1280.hex'
p310
sS'path'
p311
S'atmega'
p312
sS'unlock_bits'
p313
S'0x3F'
p314
ssS'upload'
p315
(dp316
S'speed'
p317
S'57600'
p318
sS'maximum_size'
p319
S'126976'
p320
sS'protocol'
p321
S'arduino'
p322
ssS'name'
p323
S'Arduino Mega (ATmega1280)'
p324
sS'build'
p325
(dp326
S'core'
p327
S'arduino'
p328
sS'mcu'
p329
S'atmega1280'
p330
sS'f_cpu'
p331
S'16000000L'
p332
sS'variant'
p333
S'mega'
p334
ssaa(lp335
S'leonardo'
p336
a(dp337
S'bootloader'
p338
(dp339
S'extended_fuses'
p340
S'0xcb'
p341
sS'high_fuses'
p342
S'0xd8'
p343
sS'low_fuses'
p344
S'0xff'
p345
sS'lock_bits'
p346
S'0x2F'
p347
sS'file'
p348
S'Caterina-Leonardo.hex'
p349
sS'path'
p350
S'caterina'
p351
sS'unlock_bits'
p352
S'0x3F'
p353
ssS'upload'
p354
(dp355
S'speed'
p356
S'57600'
p357
sS'maximum_size'
p358
S'28672'
p359
sS'protocol'
p360
S'avr109'
p361
sS'disable_flushing'
p362
S'true'
p363
ssS'name'
p364
S'Arduino Leonardo'
p365
sS'build'
p366
(dp367
S'core'
p368
S'arduino'
p369
sS'f_cpu'
p370
S'16000000L'
p371
sS'vid'
p372
S'0x2341'
p373
sS'pid'
p374
S'0x8036'
p375
sS'variant'
p376
S'leonardo'
p377
sS'mcu'
p378
S'atmega32u4'
p379
ssaa(lp380
S'esplora'
p381
a(dp382
S'bootloader'
p383
(dp384
S'extended_fuses'
p385
S'0xcb'
p386
sS'high_fuses'
p387
S'0xd8'
p388
sS'low_fuses'
p389
S'0xff'
p390
sS'lock_bits'
p391
S'0x2F'
p392
sS'file'
p393
S'Caterina-Esplora.hex'
p394
sS'path'
p395
S'caterina'
p396
sS'unlock_bits'
p397
S'0x3F'
p398
ssS'upload'
p399
(dp400
S'speed'
p401
S'57600'
p402
sS'maximum_size'
p403
S'28672'
p404
sS'protocol'
p405
S'avr109'
p406
sS'disable_flushing'
p407
S'true'
p408
ssS'name'
p409
S'Arduino Esplora'
p410
sS'build'
p411
(dp412
S'core'
p413
S'arduino'
p414
sS'f_cpu'
p415
S'16000000L'
p416
sS'vid'
p417
S'0x2341'
p418
sS'pid'
p419
S'0x803C'
p420
sS'variant'
p421
S'leonardo'
p422
sS'mcu'
p423
S'atmega32u4'
p424
ssaa(lp425
S'micro'
p426
a(dp427
S'bootloader'
p428
(dp429
S'extended_fuses'
p430
S'0xcb'
p431
sS'high_fuses'
p432
S'0xd8'
p433
sS'low_fuses'
p434
S'0xff'
p435
sS'lock_bits'
p436
S'0x2F'
p437
sS'file'
p438
S'Caterina-Micro.hex'
p439
sS'path'
p440
S'caterina'
p441
sS'unlock_bits'
p442
S'0x3F'
p443
ssS'upload'
p444
(dp445
S'speed'
p446
S'57600'
p447
sS'maximum_size'
p448
S'28672'
p449
sS'protocol'
p450
S'avr109'
p451
sS'disable_flushing'
p452
S'true'
p453
ssS'name'
p454
S'Arduino Micro'
p455
sS'build'
p456
(dp457
S'core'
p458
S'arduino'
p459
sS'f_cpu'
p460
S'16000000L'
p461
sS'vid'
p462
S'0x2341'
p463
sS'pid'
p464
S'0x8037'
p465
sS'variant'
p466
S'micro'
p467
sS'mcu'
p468
S'atmega32u4'
p469
ssaa(lp470
S'mini328'
p471
a(dp472
S'bootloader'
p473
(dp474
S'extended_fuses'
p475
S'0x05'
p476
sS'high_fuses'
p477
S'0xd8'
p478
sS'low_fuses'
p479
S'0xff'
p480
sS'lock_bits'
p481
S'0x0F'
p482
sS'file'
p483
S'optiboot_atmega328-Mini.hex'
p484
sS'path'
p485
S'optiboot'
p486
sS'unlock_bits'
p487
S'0x3F'
p488
ssS'upload'
p489
(dp490
S'speed'
p491
S'115200'
p492
sS'maximum_size'
p493
S'28672'
p494
sS'protocol'
p495
S'arduino'
p496
ssS'name'
p497
S'Arduino Mini w/ ATmega328'
p498
sS'build'
p499
(dp500
S'core'
p501
S'arduino'
p502
sS'mcu'
p503
S'atmega328p'
p504
sS'f_cpu'
p505
S'16000000L'
p506
sS'variant'
p507
S'eightanaloginputs'
p508
ssaa(lp509
S'mini'
p510
a(dp511
S'bootloader'
p512
(dp513
S'extended_fuses'
p514
S'0x00'
p515
sS'high_fuses'
p516
S'0xdd'
p517
sS'low_fuses'
p518
S'0xff'
p519
sS'lock_bits'
p520
S'0x0F'
p521
sS'file'
p522
S'ATmegaBOOT_168_ng.hex'
p523
sS'path'
p524
S'atmega'
p525
sS'unlock_bits'
p526
S'0x3F'
p527
ssS'upload'
p528
(dp529
S'speed'
p530
S'19200'
p531
sS'maximum_size'
p532
S'14336'
p533
sS'protocol'
p534
S'arduino'
p535
ssS'name'
p536
S'Arduino Mini w/ ATmega168'
p537
sS'build'
p538
(dp539
S'core'
p540
S'arduino'
p541
sS'mcu'
p542
S'atmega168'
p543
sS'f_cpu'
p544
S'16000000L'
p545
sS'variant'
p546
S'eightanaloginputs'
p547
ssaa(lp548
S'ethernet'
p549
a(dp550
S'bootloader'
p551
(dp552
S'extended_fuses'
p553
S'0x05'
p554
sS'high_fuses'
p555
S'0xde'
p556
sS'low_fuses'
p557
S'0xff'
p558
sS'lock_bits'
p559
S'0x0F'
p560
sS'file'
p561
S'optiboot_atmega328.hex'
p562
sS'path'
p563
S'optiboot'
p564
sS'unlock_bits'
p565
S'0x3F'
p566
ssS'upload'
p567
(dp568
S'speed'
p569
S'115200'
p570
sS'maximum_size'
p571
S'32256'
p572
sS'protocol'
p573
S'arduino'
p574
ssS'name'
p575
S'Arduino Ethernet'
p576
sS'build'
p577
(dp578
S'f_cpu'
p579
S'16000000L'
p580
sS'mcu'
p581
S'atmega328p'
p582
sS'variant'
p583
S'standard'
p584
sS'core'
p585
S'arduino'
p586
ssaa(lp587
S'fio'
p588
a(dp589
S'bootloader'
p590
(dp591
S'extended_fuses'
p592
S'0x05'
p593
sS'high_fuses'
p594
S'0xDA'
p595
sS'low_fuses'
p596
S'0xFF'
p597
sS'lock_bits'
p598
S'0x0F'
p599
sS'file'
p600
S'ATmegaBOOT_168_atmega328_pro_8MHz.hex'
p601
sS'path'
p602
S'arduino:atmega'
p603
sS'unlock_bits'
p604
S'0x3F'
p605
ssS'upload'
p606
(dp607
S'speed'
p608
S'57600'
p609
sS'maximum_size'
p610
S'30720'
p611
sS'protocol'
p612
S'arduino'
p613
ssS'name'
p614
S'Arduino Fio'
p615
sS'build'
p616
(dp617
S'core'
p618
S'arduino'
p619
sS'mcu'
p620
S'atmega328p'
p621
sS'f_cpu'
p622
S'8000000L'
p623
sS'variant'
p624
S'eightanaloginputs'
p625
ssaa(lp626
S'bt328'
p627
a(dp628
S'bootloader'
p629
(dp630
S'extended_fuses'
p631
S'0x05'
p632
sS'high_fuses'
p633
S'0xd8'
p634
sS'low_fuses'
p635
S'0xff'
p636
sS'lock_bits'
p637
S'0x0F'
p638
sS'file'
p639
S'ATmegaBOOT_168_atmega328_bt.hex'
p640
sS'path'
p641
S'bt'
p642
sS'unlock_bits'
p643
S'0x3F'
p644
ssS'upload'
p645
(dp646
S'speed'
p647
S'19200'
p648
sS'maximum_size'
p649
S'28672'
p650
sS'protocol'
p651
S'arduino'
p652
sS'disable_flushing'
p653
S'true'
p654
ssS'name'
p655
S'Arduino BT w/ ATmega328'
p656
sS'build'
p657
(dp658
S'core'
p659
S'arduino'
p660
sS'mcu'
p661
S'atmega328p'
p662
sS'f_cpu'
p663
S'16000000L'
p664
sS'variant'
p665
S'eightanaloginputs'
p666
ssaa(lp667
S'bt'
p668
a(dp669
S'bootloader'
p670
(dp671
S'extended_fuses'
p672
S'0x00'
p673
sS'high_fuses'
p674
S'0xdd'
p675
sS'low_fuses'
p676
S'0xff'
p677
sS'lock_bits'
p678
S'0x0F'
p679
sS'file'
p680
S'ATmegaBOOT_168.hex'
p681
sS'path'
p682
S'bt'
p683
sS'unlock_bits'
p684
S'0x3F'
p685
ssS'upload'
p686
(dp687
S'speed'
p688
S'19200'
p689
sS'maximum_size'
p690
S'14336'
p691
sS'protocol'
p692
S'arduino'
p693
sS'disable_flushing'
p694
S'true'
p695
ssS'name'
p696
S'Arduino BT w/ ATmega168'
p697
sS'build'
p698
(dp699
S'core'
p700
S'arduino'
p701
sS'mcu'
p702
S'atmega168'
p703
sS'f_cpu'
p704
S'16000000L'
p705
sS'variant'
p706
S'eightanaloginputs'
p707
ssaa(lp708
S'LilyPadUSB'
p709
a(dp710
S'bootloader'
p711
(dp712
S'extended_fuses'
p713
S'0xce'
p714
sS'high_fuses'
p715
S'0xd8'
p716
sS'low_fuses'
p717
S'0xff'
p718
sS'lock_bits'
p719
S'0x2F'
p720
sS'file'
p721
S'Caterina-LilyPadUSB.hex'
p722
sS'path'
p723
S'caterina-LilyPadUSB'
p724
sS'unlock_bits'
p725
S'0x3F'
p726
ssS'upload'
p727
(dp728
S'speed'
p729
S'57600'
p730
sS'maximum_size'
p731
S'28672'
p732
sS'protocol'
p733
S'avr109'
p734
sS'disable_flushing'
p735
S'true'
p736
ssS'name'
p737
S'LilyPad Arduino USB'
p738
sS'build'
p739
(dp740
S'core'
p741
S'arduino'
p742
sS'f_cpu'
p743
S'8000000L'
p744
sS'vid'
p745
S'0x1B4F'
p746
sS'pid'
p747
S'0x9208'
p748
sS'variant'
p749
S'leonardo'
p750
sS'mcu'
p751
S'atmega32u4'
p752
ssaa(lp753
S'lilypad328'
p754
a(dp755
S'bootloader'
p756
(dp757
S'extended_fuses'
p758
S'0x05'
p759
sS'high_fuses'
p760
S'0xDA'
p761
sS'low_fuses'
p762
S'0xFF'
p763
sS'lock_bits'
p764
S'0x0F'
p765
sS'file'
p766
S'ATmegaBOOT_168_atmega328_pro_8MHz.hex'
p767
sS'path'
p768
S'atmega'
p769
sS'unlock_bits'
p770
S'0x3F'
p771
ssS'upload'
p772
(dp773
S'speed'
p774
S'57600'
p775
sS'maximum_size'
p776
S'30720'
p777
sS'protocol'
p778
S'arduino'
p779
ssS'name'
p780
S'LilyPad Arduino w/ ATmega328'
p781
sS'build'
p782
(dp783
S'core'
p784
S'arduino'
p785
sS'mcu'
p786
S'atmega328p'
p787
sS'f_cpu'
p788
S'8000000L'
p789
sS'variant'
p790
S'standard'
p791
ssaa(lp792
S'lilypad'
p793
a(dp794
S'bootloader'
p795
(dp796
S'extended_fuses'
p797
S'0x00'
p798
sS'high_fuses'
p799
S'0xdd'
p800
sS'low_fuses'
p801
S'0xe2'
p802
sS'lock_bits'
p803
S'0x0F'
p804
sS'file'
p805
S'LilyPadBOOT_168.hex'
p806
sS'path'
p807
S'lilypad'
p808
sS'unlock_bits'
p809
S'0x3F'
p810
ssS'upload'
p811
(dp812
S'speed'
p813
S'19200'
p814
sS'maximum_size'
p815
S'14336'
p816
sS'protocol'
p817
S'arduino'
p818
ssS'name'
p819
S'LilyPad Arduino w/ ATmega168'
p820
sS'build'
p821
(dp822
S'core'
p823
S'arduino'
p824
sS'mcu'
p825
S'atmega168'
p826
sS'f_cpu'
p827
S'8000000L'
p828
sS'variant'
p829
S'standard'
p830
ssaa(lp831
S'pro5v328'
p832
a(dp833
S'bootloader'
p834
(dp835
S'extended_fuses'
p836
S'0x05'
p837
sS'high_fuses'
p838
S'0xDA'
p839
sS'low_fuses'
p840
S'0xFF'
p841
sS'lock_bits'
p842
S'0x0F'
p843
sS'file'
p844
S'ATmegaBOOT_168_atmega328.hex'
p845
sS'path'
p846
S'atmega'
p847
sS'unlock_bits'
p848
S'0x3F'
p849
ssS'upload'
p850
(dp851
S'speed'
p852
S'57600'
p853
sS'maximum_size'
p854
S'30720'
p855
sS'protocol'
p856
S'arduino'
p857
ssS'name'
p858
S'Arduino Pro or Pro Mini (5V, 16 MHz) w/ ATmega328'
p859
sS'build'
p860
(dp861
S'core'
p862
S'arduino'
p863
sS'mcu'
p864
S'atmega328p'
p865
sS'f_cpu'
p866
S'16000000L'
p867
sS'variant'
p868
S'standard'
p869
ssaa(lp870
S'pro5v'
p871
a(dp872
S'bootloader'
p873
(dp874
S'extended_fuses'
p875
S'0x00'
p876
sS'high_fuses'
p877
S'0xdd'
p878
sS'low_fuses'
p879
S'0xff'
p880
sS'lock_bits'
p881
S'0x0F'
p882
sS'file'
p883
S'ATmegaBOOT_168_diecimila.hex'
p884
sS'path'
p885
S'atmega'
p886
sS'unlock_bits'
p887
S'0x3F'
p888
ssS'upload'
p889
(dp890
S'speed'
p891
S'19200'
p892
sS'maximum_size'
p893
S'14336'
p894
sS'protocol'
p895
S'arduino'
p896
ssS'name'
p897
S'Arduino Pro or Pro Mini (5V, 16 MHz) w/ ATmega168'
p898
sS'build'
p899
(dp900
S'core'
p901
S'arduino'
p902
sS'mcu'
p903
S'atmega168'
p904
sS'f_cpu'
p905
S'16000000L'
p906
sS'variant'
p907
S'standard'
p908
ssaa(lp909
S'pro328'
p910
a(dp911
S'bootloader'
p912
(dp913
S'extended_fuses'
p914
S'0x05'
p915
sS'high_fuses'
p916
S'0xDA'
p917
sS'low_fuses'
p918
S'0xFF'
p919
sS'lock_bits'
p920
S'0x0F'
p921
sS'file'
p922
S'ATmegaBOOT_168_atmega328_pro_8MHz.hex'
p923
sS'path'
p924
S'atmega'
p925
sS'unlock_bits'
p926
S'0x3F'
p927
ssS'upload'
p928
(dp929
S'speed'
p930
S'57600'
p931
sS'maximum_size'
p932
S'30720'
p933
sS'protocol'
p934
S'arduino'
p935
ssS'name'
p936
S'Arduino Pro or Pro Mini (3.3V, 8 MHz) w/ ATmega328'
p937
sS'build'
p938
(dp939
S'core'
p940
S'arduino'
p941
sS'mcu'
p942
S'atmega328p'
p943
sS'f_cpu'
p944
S'8000000L'
p945
sS'variant'
p946
S'standard'
p947
ssaa(lp948
S'pro'
p949
a(dp950
S'bootloader'
p951
(dp952
S'extended_fuses'
p953
S'0x00'
p954
sS'high_fuses'
p955
S'0xdd'
p956
sS'low_fuses'
p957
S'0xc6'
p958
sS'lock_bits'
p959
S'0x0F'
p960
sS'file'
p961
S'ATmegaBOOT_168_pro_8MHz.hex'
p962
sS'path'
p963
S'atmega'
p964
sS'unlock_bits'
p965
S'0x3F'
p966
ssS'upload'
p967
(dp968
S'speed'
p969
S'19200'
p970
sS'maximum_size'
p971
S'14336'
p972
sS'protocol'
p973
S'arduino'
p974
ssS'name'
p975
S'Arduino Pro or Pro Mini (3.3V, 8 MHz) w/ ATmega168'
p976
sS'build'
p977
(dp978
S'core'
p979
S'arduino'
p980
sS'mcu'
p981
S'atmega168'
p982
sS'f_cpu'
p983
S'8000000L'
p984
sS'variant'
p985
S'standard'
p986
ssaa(lp987
S'atmega168'
p988
a(dp989
S'bootloader'
p990
(dp991
S'extended_fuses'
p992
S'0x00'
p993
sS'high_fuses'
p994
S'0xdd'
p995
sS'low_fuses'
p996
S'0xff'
p997
sS'lock_bits'
p998
S'0x0F'
p999
sS'file'
p1000
S'ATmegaBOOT_168_ng.hex'
p1001
sS'path'
p1002
S'atmega'
p1003
sS'unlock_bits'
p1004
S'0x3F'
p1005
ssS'upload'
p1006
(dp1007
S'speed'
p1008
S'19200'
p1009
sS'maximum_size'
p1010
S'14336'
p1011
sS'protocol'
p1012
S'arduino'
p1013
ssS'name'
p1014
S'Arduino NG or older w/ ATmega168'
p1015
sS'build'
p1016
(dp1017
S'core'
p1018
S'arduino'
p1019
sS'mcu'
p1020
S'atmega168'
p1021
sS'f_cpu'
p1022
S'16000000L'
p1023
sS'variant'
p1024
S'standard'
p1025
ssaa(lp1026
S'atmega8'
p1027
a(dp1028
S'bootloader'
p1029
(dp1030
S'high_fuses'
p1031
S'0xca'
p1032
sS'low_fuses'
p1033
S'0xdf'
p1034
sS'lock_bits'
p1035
S'0x0F'
p1036
sS'file'
p1037
S'ATmegaBOOT-prod-firmware-2009-11-07.hex'
p1038
sS'path'
p1039
S'atmega8'
p1040
sS'unlock_bits'
p1041
S'0x3F'
p1042
ssS'upload'
p1043
(dp1044
S'speed'
p1045
S'19200'
p1046
sS'maximum_size'
p1047
S'7168'
p1048
sS'protocol'
p1049
S'arduino'
p1050
ssS'name'
p1051
S'Arduino NG or older w/ ATmega8'
p1052
sS'build'
p1053
(dp1054
S'core'
p1055
S'arduino'
p1056
sS'mcu'
p1057
S'atmega8'
p1058
sS'f_cpu'
p1059
S'16000000L'
p1060
sS'variant'
p1061
S'standard'
p1062
ssaa(lp1063
S'robotControl'
p1064
a(dp1065
S'bootloader'
p1066
(dp1067
S'extended_fuses'
p1068
S'0xcb'
p1069
sS'high_fuses'
p1070
S'0xd8'
p1071
sS'low_fuses'
p1072
S'0xff'
p1073
sS'lock_bits'
p1074
S'0x2F'
p1075
sS'file'
p1076
S'Caterina-Robot-Control.hex'
p1077
sS'path'
p1078
S'caterina-Arduino_Robot'
p1079
sS'unlock_bits'
p1080
S'0x3F'
p1081
ssS'upload'
p1082
(dp1083
S'speed'
p1084
S'57600'
p1085
sS'maximum_size'
p1086
S'28672'
p1087
sS'protocol'
p1088
S'avr109'
p1089
sS'disable_flushing'
p1090
S'true'
p1091
ssS'name'
p1092
S'Arduino Robot Control'
p1093
sS'build'
p1094
(dp1095
S'core'
p1096
S'robot'
p1097
sS'f_cpu'
p1098
S'16000000L'
p1099
sS'vid'
p1100
S'0x2341'
p1101
sS'pid'
p1102
S'0x8038'
p1103
sS'variant'
p1104
S'robot_control'
p1105
sS'mcu'
p1106
S'atmega32u4'
p1107
ssaa(lp1108
S'robotMotor'
p1109
a(dp1110
S'bootloader'
p1111
(dp1112
S'extended_fuses'
p1113
S'0xcb'
p1114
sS'high_fuses'
p1115
S'0xd8'
p1116
sS'low_fuses'
p1117
S'0xff'
p1118
sS'lock_bits'
p1119
S'0x2F'
p1120
sS'file'
p1121
S'Caterina-Robot-Motor.hex'
p1122
sS'path'
p1123
S'caterina-Arduino_Robot'
p1124
sS'unlock_bits'
p1125
S'0x3F'
p1126
ssS'upload'
p1127
(dp1128
S'speed'
p1129
S'57600'
p1130
sS'maximum_size'
p1131
S'28672'
p1132
sS'protocol'
p1133
S'avr109'
p1134
sS'disable_flushing'
p1135
S'true'
p1136
ssS'name'
p1137
S'Arduino Robot Motor'
p1138
sS'build'
p1139
(dp1140
S'core'
p1141
S'robot'
p1142
sS'f_cpu'
p1143
S'16000000L'
p1144
sS'vid'
p1145
S'0x2341'
p1146
sS'pid'
p1147
S'0x8039'
p1148
sS'variant'
p1149
S'robot_motor'
p1150
sS'mcu'
p1151
S'atmega32u4'
p1152
ssaatp1153
Rp1154
(dp1155
S'default'
p1156
S'uno'
p1157
sbtp1158
a(S'used_libs'
p1159
(lp1160
tp1161
a(S'make'
p1162
S'/usr/share/arduino/hardware/tools/avr/bin/make'
p1163
tp1164
a(S'arduino_libraries_dir'
p1165
S'/usr/share/arduino/libraries'
p1166
tp1167
a(S'cc'
p1168
S'/usr/share/arduino/hardware/tools/avr/bin/avr-gcc'
p1169
tp1170
a(S'cflags'
p1171
g2
(g3
g4
(lp1172
tp1173
Rp1174
tp1175
a(S'cxxflags'
p1176
g2
(g3
g4
(lp1177
S'-fno-exceptions'
p1178
atp1179
Rp1180
tp1181
a(S'arduino_variants_dir'
p1182
S'/usr/share/arduino/hardware/arduino/variants'
p1183
tp1184
a(S'stty'
p1185
S'/bin/stty'
p1186
tp1187
a(S'version.txt'
p1188
S'/usr/share/arduino/lib/version.txt'
p1189
tp1190
a(S'arduino_core_dir'
p1191
S'/usr/share/arduino/hardware/arduino/cores/arduino'
p1192
tp1193
a(S'boards.txt'
p1194
S'/usr/share/arduino/hardware/arduino/boards.txt'
p1195
tp1196
a(S'avrdude.conf'
p1197
S'/usr/share/arduino/hardware/tools/avrdude.conf'
p1198
tp1199
a(S'deps'
p1200
g2
(g3
g4
(lp1201
S'.build/uno/src/dependencies.d'
p1202
atp1203
Rp1204
tp1205
a.